target datalayout = "e-m:e-p270:32:32-p271:32:32-p272:64:64-i64:64-i128:128-f80:128-n8:16:32:64-S128"
target triple = "x86_64-unknown-linux-gnu"

%"class.smt::eq_justification" = type { ptr }
%"class.smt::enode" = type { ptr, ptr, ptr, ptr, i32, i32, i32, i16, i32, i8, i8, %class.ptr_vector, %class.id_var_list, %"struct.smt::trans_justification", %class.approx_set, %class.approx_set, [0 x ptr] }
%class.ptr_vector = type { %class.vector }
%class.vector = type { ptr }
%class.id_var_list = type { i32, ptr }
%"struct.smt::trans_justification" = type { ptr, %"class.smt::eq_justification" }
%class.approx_set = type { %class.approx_set_tpl }
%class.approx_set_tpl = type { i64 }
%class.ast = type { i32, i24, i32, i32 }
%class.app = type { %class.expr, ptr, i32, [0 x ptr] }
%class.expr = type { %class.ast }

; Function Attrs: mustprogress nounwind uwtable
define linkonce_odr hidden noundef i32 @_ZNK3ast4hashEv(ptr noundef nonnull align 4 dereferenceable(16) %this) #4 comdat align 2 {
entry:
  %this.addr = alloca ptr, align 8
  store ptr %this, ptr %this.addr, align 8
  %this1 = load ptr, ptr %this.addr, align 8
  %m_hash = getelementptr inbounds %class.ast, ptr %this1, i32 0, i32 3
  %0 = load i32, ptr %m_hash, align 4
  ret i32 %0
}

; Function Attrs: mustprogress nounwind uwtable
define linkonce_odr hidden noundef i32 @_ZNK3app12get_num_argsEv(ptr noundef nonnull align 8 dereferenceable(32) %this) #4 comdat align 2 {
entry:
  %this.addr = alloca ptr, align 8
  store ptr %this, ptr %this.addr, align 8
  %this1 = load ptr, ptr %this.addr, align 8
  %m_num_args = getelementptr inbounds %class.app, ptr %this1, i32 0, i32 2
  %0 = load i32, ptr %m_num_args, align 8
  ret i32 %0
}

; Function Attrs: mustprogress uwtable
define linkonce_odr hidden noundef i32 @_ZNK3smt5enode4hashEv(ptr noundef nonnull align 8 dereferenceable(112) %this) #5 comdat align 2 {
entry:
  %this.addr = alloca ptr, align 8
  store ptr %this, ptr %this.addr, align 8
  %this1 = load ptr, ptr %this.addr, align 8
  %m_owner = getelementptr inbounds %"class.smt::enode", ptr %this1, i32 0, i32 0
  %0 = load ptr, ptr %m_owner, align 8
  %call = call noundef i32 @_ZNK3ast4hashEv(ptr noundef nonnull align 4 dereferenceable(16) %0)
  ret i32 %call
}

; Function Attrs: mustprogress nounwind uwtable
define linkonce_odr hidden noundef ptr @_ZNK3smt5enode8get_rootEv(ptr noundef nonnull align 8 dereferenceable(112) %this) #4 comdat align 2 {
entry:
  %this.addr = alloca ptr, align 8
  store ptr %this, ptr %this.addr, align 8
  %this1 = load ptr, ptr %this.addr, align 8
  %m_root = getelementptr inbounds %"class.smt::enode", ptr %this1, i32 0, i32 1
  %0 = load ptr, ptr %m_root, align 8
  ret ptr %0
}

; Function Attrs: mustprogress nounwind uwtable
define linkonce_odr hidden noundef ptr @_ZNK3smt5enode7get_argEj(ptr noundef nonnull align 8 dereferenceable(112) %this, i32 noundef %idx) #4 comdat align 2 {
entry:
  %this.addr = alloca ptr, align 8
  %idx.addr = alloca i32, align 4
  store ptr %this, ptr %this.addr, align 8
  store i32 %idx, ptr %idx.addr, align 4
  %this1 = load ptr, ptr %this.addr, align 8
  %m_args = getelementptr inbounds %"class.smt::enode", ptr %this1, i32 0, i32 16
  %0 = load i32, ptr %idx.addr, align 4
  %idxprom = zext i32 %0 to i64
  %arrayidx = getelementptr inbounds [0 x ptr], ptr %m_args, i64 0, i64 %idxprom
  %1 = load ptr, ptr %arrayidx, align 8
  ret ptr %1
}

; Function Attrs: mustprogress uwtable
define linkonce_odr hidden noundef i32 @_ZNK3smt5enode12get_num_argsEv(ptr noundef nonnull align 8 dereferenceable(112) %this) #5 comdat align 2 {
entry:
  %this.addr = alloca ptr, align 8
  store ptr %this, ptr %this.addr, align 8
  %this1 = load ptr, ptr %this.addr, align 8
  %m_suppress_args = getelementptr inbounds %"class.smt::enode", ptr %this1, i32 0, i32 7
  %bf.load = load i16, ptr %m_suppress_args, align 4
  %bf.lshr = lshr i16 %bf.load, 3
  %bf.clear = and i16 %bf.lshr, 1
  %bf.cast = zext i16 %bf.clear to i32
  %tobool = icmp ne i32 %bf.cast, 0
  br i1 %tobool, label %cond.true, label %cond.false

cond.true:                                        ; preds = %entry
  br label %cond.end

cond.false:                                       ; preds = %entry
  %m_owner = getelementptr inbounds %"class.smt::enode", ptr %this1, i32 0, i32 0
  %0 = load ptr, ptr %m_owner, align 8
  %call = call noundef i32 @_ZNK3app12get_num_argsEv(ptr noundef nonnull align 8 dereferenceable(32) %0)
  br label %cond.end

cond.end:                                         ; preds = %cond.false, %cond.true
  %cond = phi i32 [ 0, %cond.true ], [ %call, %cond.false ]
  ret i32 %cond
}

; Function Attrs: mustprogress uwtable
define hidden noundef i32 @_ZNK3smt8cg_table7cg_hashclEPNS_5enodeE(ptr noundef nonnull align 1 dereferenceable(1) %this, ptr noundef %n) #5 align 2 {
entry:
  %this.addr = alloca ptr, align 8
  %n.addr = alloca ptr, align 8
  %a = alloca i32, align 4
  %b = alloca i32, align 4
  %c = alloca i32, align 4
  %i = alloca i32, align 4
  store ptr %this, ptr %this.addr, align 8
  store ptr %n, ptr %n.addr, align 8
  store i32 -1640531527, ptr %b, align 4
  store i32 -1640531527, ptr %a, align 4
  store i32 11, ptr %c, align 4
  %0 = load ptr, ptr %n.addr, align 8
  %call = call noundef i32 @_ZNK3smt5enode12get_num_argsEv(ptr noundef nonnull align 8 dereferenceable(112) %0)
  store i32 %call, ptr %i, align 4
  br label %while.cond

while.cond:                                       ; preds = %while.body, %entry
  %1 = load i32, ptr %i, align 4
  %cmp = icmp uge i32 %1, 3
  br i1 %cmp, label %while.body, label %while.end

while.body:                                       ; preds = %while.cond
  %2 = load i32, ptr %i, align 4
  %dec = add i32 %2, -1
  store i32 %dec, ptr %i, align 4
  %3 = load ptr, ptr %n.addr, align 8
  %4 = load i32, ptr %i, align 4
  %call2 = call noundef ptr @_ZNK3smt5enode7get_argEj(ptr noundef nonnull align 8 dereferenceable(112) %3, i32 noundef %4)
  %call3 = call noundef ptr @_ZNK3smt5enode8get_rootEv(ptr noundef nonnull align 8 dereferenceable(112) %call2)
  %call4 = call noundef i32 @_ZNK3smt5enode4hashEv(ptr noundef nonnull align 8 dereferenceable(112) %call3)
  %5 = load i32, ptr %a, align 4
  %add = add i32 %5, %call4
  store i32 %add, ptr %a, align 4
  %6 = load i32, ptr %i, align 4
  %dec5 = add i32 %6, -1
  store i32 %dec5, ptr %i, align 4
  %7 = load ptr, ptr %n.addr, align 8
  %8 = load i32, ptr %i, align 4
  %call6 = call noundef ptr @_ZNK3smt5enode7get_argEj(ptr noundef nonnull align 8 dereferenceable(112) %7, i32 noundef %8)
  %call7 = call noundef ptr @_ZNK3smt5enode8get_rootEv(ptr noundef nonnull align 8 dereferenceable(112) %call6)
  %call8 = call noundef i32 @_ZNK3smt5enode4hashEv(ptr noundef nonnull align 8 dereferenceable(112) %call7)
  %9 = load i32, ptr %b, align 4
  %add9 = add i32 %9, %call8
  store i32 %add9, ptr %b, align 4
  %10 = load i32, ptr %i, align 4
  %dec10 = add i32 %10, -1
  store i32 %dec10, ptr %i, align 4
  %11 = load ptr, ptr %n.addr, align 8
  %12 = load i32, ptr %i, align 4
  %call11 = call noundef ptr @_ZNK3smt5enode7get_argEj(ptr noundef nonnull align 8 dereferenceable(112) %11, i32 noundef %12)
  %call12 = call noundef ptr @_ZNK3smt5enode8get_rootEv(ptr noundef nonnull align 8 dereferenceable(112) %call11)
  %call13 = call noundef i32 @_ZNK3smt5enode4hashEv(ptr noundef nonnull align 8 dereferenceable(112) %call12)
  %13 = load i32, ptr %c, align 4
  %add14 = add i32 %13, %call13
  store i32 %add14, ptr %c, align 4
  %14 = load i32, ptr %b, align 4
  %15 = load i32, ptr %a, align 4
  %sub = sub i32 %15, %14
  store i32 %sub, ptr %a, align 4
  %16 = load i32, ptr %c, align 4
  %17 = load i32, ptr %a, align 4
  %sub15 = sub i32 %17, %16
  store i32 %sub15, ptr %a, align 4
  %18 = load i32, ptr %c, align 4
  %shr = lshr i32 %18, 13
  %19 = load i32, ptr %a, align 4
  %xor = xor i32 %19, %shr
  store i32 %xor, ptr %a, align 4
  %20 = load i32, ptr %c, align 4
  %21 = load i32, ptr %b, align 4
  %sub16 = sub i32 %21, %20
  store i32 %sub16, ptr %b, align 4
  %22 = load i32, ptr %a, align 4
  %23 = load i32, ptr %b, align 4
  %sub17 = sub i32 %23, %22
  store i32 %sub17, ptr %b, align 4
  %24 = load i32, ptr %a, align 4
  %shl = shl i32 %24, 8
  %25 = load i32, ptr %b, align 4
  %xor18 = xor i32 %25, %shl
  store i32 %xor18, ptr %b, align 4
  %26 = load i32, ptr %a, align 4
  %27 = load i32, ptr %c, align 4
  %sub19 = sub i32 %27, %26
  store i32 %sub19, ptr %c, align 4
  %28 = load i32, ptr %b, align 4
  %29 = load i32, ptr %c, align 4
  %sub20 = sub i32 %29, %28
  store i32 %sub20, ptr %c, align 4
  %30 = load i32, ptr %b, align 4
  %shr21 = lshr i32 %30, 13
  %31 = load i32, ptr %c, align 4
  %xor22 = xor i32 %31, %shr21
  store i32 %xor22, ptr %c, align 4
  %32 = load i32, ptr %b, align 4
  %33 = load i32, ptr %a, align 4
  %sub23 = sub i32 %33, %32
  store i32 %sub23, ptr %a, align 4
  %34 = load i32, ptr %c, align 4
  %35 = load i32, ptr %a, align 4
  %sub24 = sub i32 %35, %34
  store i32 %sub24, ptr %a, align 4
  %36 = load i32, ptr %c, align 4
  %shr25 = lshr i32 %36, 12
  %37 = load i32, ptr %a, align 4
  %xor26 = xor i32 %37, %shr25
  store i32 %xor26, ptr %a, align 4
  %38 = load i32, ptr %c, align 4
  %39 = load i32, ptr %b, align 4
  %sub27 = sub i32 %39, %38
  store i32 %sub27, ptr %b, align 4
  %40 = load i32, ptr %a, align 4
  %41 = load i32, ptr %b, align 4
  %sub28 = sub i32 %41, %40
  store i32 %sub28, ptr %b, align 4
  %42 = load i32, ptr %a, align 4
  %shl29 = shl i32 %42, 16
  %43 = load i32, ptr %b, align 4
  %xor30 = xor i32 %43, %shl29
  store i32 %xor30, ptr %b, align 4
  %44 = load i32, ptr %a, align 4
  %45 = load i32, ptr %c, align 4
  %sub31 = sub i32 %45, %44
  store i32 %sub31, ptr %c, align 4
  %46 = load i32, ptr %b, align 4
  %47 = load i32, ptr %c, align 4
  %sub32 = sub i32 %47, %46
  store i32 %sub32, ptr %c, align 4
  %48 = load i32, ptr %b, align 4
  %shr33 = lshr i32 %48, 5
  %49 = load i32, ptr %c, align 4
  %xor34 = xor i32 %49, %shr33
  store i32 %xor34, ptr %c, align 4
  %50 = load i32, ptr %b, align 4
  %51 = load i32, ptr %a, align 4
  %sub35 = sub i32 %51, %50
  store i32 %sub35, ptr %a, align 4
  %52 = load i32, ptr %c, align 4
  %53 = load i32, ptr %a, align 4
  %sub36 = sub i32 %53, %52
  store i32 %sub36, ptr %a, align 4
  %54 = load i32, ptr %c, align 4
  %shr37 = lshr i32 %54, 3
  %55 = load i32, ptr %a, align 4
  %xor38 = xor i32 %55, %shr37
  store i32 %xor38, ptr %a, align 4
  %56 = load i32, ptr %c, align 4
  %57 = load i32, ptr %b, align 4
  %sub39 = sub i32 %57, %56
  store i32 %sub39, ptr %b, align 4
  %58 = load i32, ptr %a, align 4
  %59 = load i32, ptr %b, align 4
  %sub40 = sub i32 %59, %58
  store i32 %sub40, ptr %b, align 4
  %60 = load i32, ptr %a, align 4
  %shl41 = shl i32 %60, 10
  %61 = load i32, ptr %b, align 4
  %xor42 = xor i32 %61, %shl41
  store i32 %xor42, ptr %b, align 4
  %62 = load i32, ptr %a, align 4
  %63 = load i32, ptr %c, align 4
  %sub43 = sub i32 %63, %62
  store i32 %sub43, ptr %c, align 4
  %64 = load i32, ptr %b, align 4
  %65 = load i32, ptr %c, align 4
  %sub44 = sub i32 %65, %64
  store i32 %sub44, ptr %c, align 4
  %66 = load i32, ptr %b, align 4
  %shr45 = lshr i32 %66, 15
  %67 = load i32, ptr %c, align 4
  %xor46 = xor i32 %67, %shr45
  store i32 %xor46, ptr %c, align 4
  br label %while.cond, !llvm.loop !4

while.end:                                        ; preds = %while.cond
  %68 = load i32, ptr %i, align 4
  switch i32 %68, label %sw.epilog [
    i32 2, label %sw.bb
    i32 1, label %sw.bb51
  ]

sw.bb:                                            ; preds = %while.end
  %69 = load ptr, ptr %n.addr, align 8
  %call47 = call noundef ptr @_ZNK3smt5enode7get_argEj(ptr noundef nonnull align 8 dereferenceable(112) %69, i32 noundef 1)
  %call48 = call noundef ptr @_ZNK3smt5enode8get_rootEv(ptr noundef nonnull align 8 dereferenceable(112) %call47)
  %call49 = call noundef i32 @_ZNK3smt5enode4hashEv(ptr noundef nonnull align 8 dereferenceable(112) %call48)
  %70 = load i32, ptr %b, align 4
  %add50 = add i32 %70, %call49
  store i32 %add50, ptr %b, align 4
  br label %sw.bb51

sw.bb51:                                          ; preds = %sw.bb, %while.end
  %71 = load ptr, ptr %n.addr, align 8
  %call52 = call noundef ptr @_ZNK3smt5enode7get_argEj(ptr noundef nonnull align 8 dereferenceable(112) %71, i32 noundef 0)
  %call53 = call noundef ptr @_ZNK3smt5enode8get_rootEv(ptr noundef nonnull align 8 dereferenceable(112) %call52)
  %call54 = call noundef i32 @_ZNK3smt5enode4hashEv(ptr noundef nonnull align 8 dereferenceable(112) %call53)
  %72 = load i32, ptr %c, align 4
  %add55 = add i32 %72, %call54
  store i32 %add55, ptr %c, align 4
  br label %sw.epilog

sw.epilog:                                        ; preds = %sw.bb51, %while.end
  %73 = load i32, ptr %b, align 4
  %74 = load i32, ptr %a, align 4
  %sub56 = sub i32 %74, %73
  store i32 %sub56, ptr %a, align 4
  %75 = load i32, ptr %c, align 4
  %76 = load i32, ptr %a, align 4
  %sub57 = sub i32 %76, %75
  store i32 %sub57, ptr %a, align 4
  %77 = load i32, ptr %c, align 4
  %shr58 = lshr i32 %77, 13
  %78 = load i32, ptr %a, align 4
  %xor59 = xor i32 %78, %shr58
  store i32 %xor59, ptr %a, align 4
  %79 = load i32, ptr %c, align 4
  %80 = load i32, ptr %b, align 4
  %sub60 = sub i32 %80, %79
  store i32 %sub60, ptr %b, align 4
  %81 = load i32, ptr %a, align 4
  %82 = load i32, ptr %b, align 4
  %sub61 = sub i32 %82, %81
  store i32 %sub61, ptr %b, align 4
  %83 = load i32, ptr %a, align 4
  %shl62 = shl i32 %83, 8
  %84 = load i32, ptr %b, align 4
  %xor63 = xor i32 %84, %shl62
  store i32 %xor63, ptr %b, align 4
  %85 = load i32, ptr %a, align 4
  %86 = load i32, ptr %c, align 4
  %sub64 = sub i32 %86, %85
  store i32 %sub64, ptr %c, align 4
  %87 = load i32, ptr %b, align 4
  %88 = load i32, ptr %c, align 4
  %sub65 = sub i32 %88, %87
  store i32 %sub65, ptr %c, align 4
  %89 = load i32, ptr %b, align 4
  %shr66 = lshr i32 %89, 13
  %90 = load i32, ptr %c, align 4
  %xor67 = xor i32 %90, %shr66
  store i32 %xor67, ptr %c, align 4
  %91 = load i32, ptr %b, align 4
  %92 = load i32, ptr %a, align 4
  %sub68 = sub i32 %92, %91
  store i32 %sub68, ptr %a, align 4
  %93 = load i32, ptr %c, align 4
  %94 = load i32, ptr %a, align 4
  %sub69 = sub i32 %94, %93
  store i32 %sub69, ptr %a, align 4
  %95 = load i32, ptr %c, align 4
  %shr70 = lshr i32 %95, 12
  %96 = load i32, ptr %a, align 4
  %xor71 = xor i32 %96, %shr70
  store i32 %xor71, ptr %a, align 4
  %97 = load i32, ptr %c, align 4
  %98 = load i32, ptr %b, align 4
  %sub72 = sub i32 %98, %97
  store i32 %sub72, ptr %b, align 4
  %99 = load i32, ptr %a, align 4
  %100 = load i32, ptr %b, align 4
  %sub73 = sub i32 %100, %99
  store i32 %sub73, ptr %b, align 4
  %101 = load i32, ptr %a, align 4
  %shl74 = shl i32 %101, 16
  %102 = load i32, ptr %b, align 4
  %xor75 = xor i32 %102, %shl74
  store i32 %xor75, ptr %b, align 4
  %103 = load i32, ptr %a, align 4
  %104 = load i32, ptr %c, align 4
  %sub76 = sub i32 %104, %103
  store i32 %sub76, ptr %c, align 4
  %105 = load i32, ptr %b, align 4
  %106 = load i32, ptr %c, align 4
  %sub77 = sub i32 %106, %105
  store i32 %sub77, ptr %c, align 4
  %107 = load i32, ptr %b, align 4
  %shr78 = lshr i32 %107, 5
  %108 = load i32, ptr %c, align 4
  %xor79 = xor i32 %108, %shr78
  store i32 %xor79, ptr %c, align 4
  %109 = load i32, ptr %b, align 4
  %110 = load i32, ptr %a, align 4
  %sub80 = sub i32 %110, %109
  store i32 %sub80, ptr %a, align 4
  %111 = load i32, ptr %c, align 4
  %112 = load i32, ptr %a, align 4
  %sub81 = sub i32 %112, %111
  store i32 %sub81, ptr %a, align 4
  %113 = load i32, ptr %c, align 4
  %shr82 = lshr i32 %113, 3
  %114 = load i32, ptr %a, align 4
  %xor83 = xor i32 %114, %shr82
  store i32 %xor83, ptr %a, align 4
  %115 = load i32, ptr %c, align 4
  %116 = load i32, ptr %b, align 4
  %sub84 = sub i32 %116, %115
  store i32 %sub84, ptr %b, align 4
  %117 = load i32, ptr %a, align 4
  %118 = load i32, ptr %b, align 4
  %sub85 = sub i32 %118, %117
  store i32 %sub85, ptr %b, align 4
  %119 = load i32, ptr %a, align 4
  %shl86 = shl i32 %119, 10
  %120 = load i32, ptr %b, align 4
  %xor87 = xor i32 %120, %shl86
  store i32 %xor87, ptr %b, align 4
  %121 = load i32, ptr %a, align 4
  %122 = load i32, ptr %c, align 4
  %sub88 = sub i32 %122, %121
  store i32 %sub88, ptr %c, align 4
  %123 = load i32, ptr %b, align 4
  %124 = load i32, ptr %c, align 4
  %sub89 = sub i32 %124, %123
  store i32 %sub89, ptr %c, align 4
  %125 = load i32, ptr %b, align 4
  %shr90 = lshr i32 %125, 15
  %126 = load i32, ptr %c, align 4
  %xor91 = xor i32 %126, %shr90
  store i32 %xor91, ptr %c, align 4
  %127 = load i32, ptr %c, align 4
  ret i32 %127
}