; Function Attrs: mustprogress nofree norecurse nosync nounwind willreturn memory(read, inaccessiblemem: none) uwtable
define hidden noundef i32 @_ZNK3smt8cg_table7cg_hashclEPNS_5enodeE(ptr nocapture nonnull readnone align 1 %this, ptr nocapture noundef readonly %n) local_unnamed_addr #3 align 2 {
entry:
  %m_suppress_args.i = getelementptr inbounds i8, ptr %n, i64 44
  %bf.load.i = load i16, ptr %m_suppress_args.i, align 4
  %0 = and i16 %bf.load.i, 8
  %tobool.not.i = icmp eq i16 %0, 0
  br i1 %tobool.not.i, label %_ZNK3smt5enode12get_num_argsEv.exit, label %sw.epilog

_ZNK3smt5enode12get_num_argsEv.exit:              ; preds = %entry
  %1 = load ptr, ptr %n, align 8
  %m_num_args.i.i = getelementptr inbounds i8, ptr %1, i64 24
  %2 = load i32, ptr %m_num_args.i.i, align 8
  %cmp158 = icmp ugt i32 %2, 2
  br i1 %cmp158, label %while.body.lr.ph, label %while.end

while.body.lr.ph:                                 ; preds = %_ZNK3smt5enode12get_num_argsEv.exit
  %m_args.i = getelementptr inbounds i8, ptr %n, i64 112
  %3 = zext i32 %2 to i64
  br label %while.body

while.body:                                       ; preds = %while.body.lr.ph, %while.body
  %indvars.iv = phi i64 [ %3, %while.body.lr.ph ], [ %12, %while.body ]
  %c.0161 = phi i32 [ 11, %while.body.lr.ph ], [ %xor46, %while.body ]
  %b.0160 = phi i32 [ -1640531527, %while.body.lr.ph ], [ %xor42, %while.body ]
  %a.0159 = phi i32 [ -1640531527, %while.body.lr.ph ], [ %xor38, %while.body ]
  %dec = add i64 %indvars.iv, 4294967295
  %idxprom.i = and i64 %dec, 4294967295
  %arrayidx.i = getelementptr inbounds [0 x ptr], ptr %m_args.i, i64 0, i64 %idxprom.i
  %4 = load ptr, ptr %arrayidx.i, align 8
  %m_root.i = getelementptr inbounds i8, ptr %4, i64 8
  %5 = load ptr, ptr %m_root.i, align 8
  %6 = load ptr, ptr %5, align 8
  %m_hash.i.i = getelementptr inbounds i8, ptr %6, i64 12
  %7 = load i32, ptr %m_hash.i.i, align 4
  %dec5 = add i64 %indvars.iv, 4294967294
  %idxprom.i125 = and i64 %dec5, 4294967295
  %arrayidx.i126 = getelementptr inbounds [0 x ptr], ptr %m_args.i, i64 0, i64 %idxprom.i125
  %8 = load ptr, ptr %arrayidx.i126, align 8
  %m_root.i127 = getelementptr inbounds i8, ptr %8, i64 8
  %9 = load ptr, ptr %m_root.i127, align 8
  %10 = load ptr, ptr %9, align 8
  %m_hash.i.i128 = getelementptr inbounds i8, ptr %10, i64 12
  %11 = load i32, ptr %m_hash.i.i128, align 4
  %add9 = add i32 %11, %b.0160
  %12 = add nsw i64 %indvars.iv, -3
  %arrayidx.i131 = getelementptr inbounds [0 x ptr], ptr %m_args.i, i64 0, i64 %12
  %13 = load ptr, ptr %arrayidx.i131, align 8
  %m_root.i132 = getelementptr inbounds i8, ptr %13, i64 8
  %14 = load ptr, ptr %m_root.i132, align 8
  %15 = load ptr, ptr %14, align 8
  %m_hash.i.i133 = getelementptr inbounds i8, ptr %15, i64 12
  %16 = load i32, ptr %m_hash.i.i133, align 4
  %add14 = add i32 %16, %c.0161
  %.neg149 = add i32 %7, %a.0159
  %17 = add i32 %add9, %add14
  %sub15 = sub i32 %.neg149, %17
  %shr = lshr i32 %add14, 13
  %xor = xor i32 %sub15, %shr
  %18 = add i32 %add14, %xor
  %sub17 = sub i32 %add9, %18
  %shl = shl i32 %xor, 8
  %xor18 = xor i32 %sub17, %shl
  %19 = add i32 %xor, %xor18
  %sub20 = sub i32 %add14, %19
  %shr21 = lshr i32 %xor18, 13
  %xor22 = xor i32 %sub20, %shr21
  %20 = add i32 %xor18, %xor22
  %sub24 = sub i32 %xor, %20
  %shr25 = lshr i32 %xor22, 12
  %xor26 = xor i32 %sub24, %shr25
  %21 = add i32 %xor22, %xor26
  %sub28 = sub i32 %xor18, %21
  %shl29 = shl i32 %xor26, 16
  %xor30 = xor i32 %sub28, %shl29
  %22 = add i32 %xor26, %xor30
  %sub32 = sub i32 %xor22, %22
  %shr33 = lshr i32 %xor30, 5
  %xor34 = xor i32 %sub32, %shr33
  %23 = add i32 %xor30, %xor34
  %sub36 = sub i32 %xor26, %23
  %shr37 = lshr i32 %xor34, 3
  %xor38 = xor i32 %sub36, %shr37
  %24 = add i32 %xor34, %xor38
  %sub40 = sub i32 %xor30, %24
  %shl41 = shl i32 %xor38, 10
  %xor42 = xor i32 %sub40, %shl41
  %25 = add i32 %xor38, %xor42
  %sub44 = sub i32 %xor34, %25
  %shr45 = lshr i32 %xor42, 15
  %xor46 = xor i32 %sub44, %shr45
  %cmp.wide = icmp ugt i64 %12, 2
  br i1 %cmp.wide, label %while.body, label %while.end.loopexit, !llvm.loop !4

while.end.loopexit:                               ; preds = %while.body
  %26 = trunc i64 %12 to i32
  br label %while.end

while.end:                                        ; preds = %while.end.loopexit, %_ZNK3smt5enode12get_num_argsEv.exit
  %a.0.lcssa = phi i32 [ -1640531527, %_ZNK3smt5enode12get_num_argsEv.exit ], [ %xor38, %while.end.loopexit ]
  %b.0.lcssa = phi i32 [ -1640531527, %_ZNK3smt5enode12get_num_argsEv.exit ], [ %xor42, %while.end.loopexit ]
  %c.0.lcssa = phi i32 [ 11, %_ZNK3smt5enode12get_num_argsEv.exit ], [ %xor46, %while.end.loopexit ]
  %i.0.lcssa = phi i32 [ %2, %_ZNK3smt5enode12get_num_argsEv.exit ], [ %26, %while.end.loopexit ]
  switch i32 %i.0.lcssa, label %sw.epilog [
    i32 2, label %sw.bb
    i32 1, label %sw.bb51
  ]

sw.bb:                                            ; preds = %while.end
  %arrayidx.i135 = getelementptr inbounds i8, ptr %n, i64 120
  %27 = load ptr, ptr %arrayidx.i135, align 8
  %m_root.i136 = getelementptr inbounds i8, ptr %27, i64 8
  %28 = load ptr, ptr %m_root.i136, align 8
  %29 = load ptr, ptr %28, align 8
  %m_hash.i.i137 = getelementptr inbounds i8, ptr %29, i64 12
  %30 = load i32, ptr %m_hash.i.i137, align 4
  %add50 = add i32 %30, %b.0.lcssa
  br label %sw.bb51

sw.bb51:                                          ; preds = %sw.bb, %while.end
  %b.1 = phi i32 [ %b.0.lcssa, %while.end ], [ %add50, %sw.bb ]
  %m_args.i138 = getelementptr inbounds i8, ptr %n, i64 112
  %31 = load ptr, ptr %m_args.i138, align 8
  %m_root.i139 = getelementptr inbounds i8, ptr %31, i64 8
  %32 = load ptr, ptr %m_root.i139, align 8
  %33 = load ptr, ptr %32, align 8
  %m_hash.i.i140 = getelementptr inbounds i8, ptr %33, i64 12
  %34 = load i32, ptr %m_hash.i.i140, align 4
  %add55 = add i32 %34, %c.0.lcssa
  br label %sw.epilog

sw.epilog:                                        ; preds = %entry, %sw.bb51, %while.end
  %a.0.lcssa174 = phi i32 [ %a.0.lcssa, %while.end ], [ %a.0.lcssa, %sw.bb51 ], [ -1640531527, %entry ]
  %b.2 = phi i32 [ %b.0.lcssa, %while.end ], [ %b.1, %sw.bb51 ], [ -1640531527, %entry ]
  %c.1 = phi i32 [ %c.0.lcssa, %while.end ], [ %add55, %sw.bb51 ], [ 11, %entry ]
  %35 = add i32 %b.2, %c.1
  %sub57 = sub i32 %a.0.lcssa174, %35
  %shr58 = lshr i32 %c.1, 13
  %xor59 = xor i32 %sub57, %shr58
  %36 = add i32 %c.1, %xor59
  %sub61 = sub i32 %b.2, %36
  %shl62 = shl i32 %xor59, 8
  %xor63 = xor i32 %sub61, %shl62
  %37 = add i32 %xor59, %xor63
  %sub65 = sub i32 %c.1, %37
  %shr66 = lshr i32 %xor63, 13
  %xor67 = xor i32 %sub65, %shr66
  %38 = add i32 %xor63, %xor67
  %sub69 = sub i32 %xor59, %38
  %shr70 = lshr i32 %xor67, 12
  %xor71 = xor i32 %sub69, %shr70
  %39 = add i32 %xor67, %xor71
  %sub73 = sub i32 %xor63, %39
  %shl74 = shl i32 %xor71, 16
  %xor75 = xor i32 %sub73, %shl74
  %40 = add i32 %xor71, %xor75
  %sub77 = sub i32 %xor67, %40
  %shr78 = lshr i32 %xor75, 5
  %xor79 = xor i32 %sub77, %shr78
  %41 = add i32 %xor75, %xor79
  %sub81 = sub i32 %xor71, %41
  %shr82 = lshr i32 %xor79, 3
  %xor83 = xor i32 %sub81, %shr82
  %42 = add i32 %xor79, %xor83
  %sub85 = sub i32 %xor75, %42
  %shl86 = shl i32 %xor83, 10
  %xor87 = xor i32 %sub85, %shl86
  %43 = add i32 %xor83, %xor87
  %sub89 = sub i32 %xor79, %43
  %shr90 = lshr i32 %xor87, 15
  %xor91 = xor i32 %sub89, %shr90
  ret i32 %xor91
}